(dp0
S'keywords'
p1
(dp2
Vjust
p3
(lp4
S'/Volumes/Tony/Documents/Notes/notes'
p5
asV\u5bfc\u5165\u7ba1\u7406android\u6e90\u7801
p6
(lp7
S'/Volumes/Tony/Documents/Notes/vim-project'
p8
asV\u6572\u5165\u547d\u4ee4
p9
(lp10
g8
asV\u914d\u7f6e\u53c2\u6570\u9879
p11
(lp12
g8
asVsyntax
p13
(lp14
g5
asVgf
p15
(lp16
g5
asV\u5bfc\u5165\u6587\u4ef6\u5217\u8868
p17
(lp18
g8
asV\u4e0b\u8f7d\u5b89\u88c5
p19
(lp20
g8
asVvim\u767b\u9646\u540e\u8f93\u5165\u547d\u4ee4
p21
(lp22
g8
asVproject\u9879\u76ee\u7ba1\u7406
p23
(lp24
g8
asVnote
p25
(lp26
g5
asVf9\u6267\u884c\u6307\u5b9a\u547d\u4ee4
p27
(lp28
g8
asVone
p29
(lp30
g8
asVbased
p31
(lp32
g5
asV\u6216\u76f4\u63a5\u4e0b\u8f7dproject
p33
(lp34
g8
asV\u6b65\u9aa4\u5982\u4e0b
p35
(lp36
g8
asVtitle
p37
(lp38
g5
asVs\u9012\u5f52\u6253\u5f00\u6587\u4ef6\u5939\u5e76\u521b\u5efa
p39
(lp40
g8
asVprojectpath
p41
(lp42
g8
asV\u9ed8\u8ba4\u5217\u8868\u6587\u4ef6
p43
(lp44
g8
asVr\u9012\u5f52\u6253\u5f00\u6587\u4ef6\u5939\u5e76\u5237\u65b0\u6240\u6709\u6587\u4ef6
p45
(lp46
g8
asVto
p47
(lp48
g5
ag8
asV\u6f2b\u957f\u7684\u52a0\u8f7d
p49
(lp50
g8
asVsave
p51
(lp52
g5
asV\u659c\u6760
p53
(lp54
g8
asVget
p55
(lp56
g5
asVgz
p57
(lp58
g8
asVpress
p59
(lp60
g5
asV\u5217\u8868\u663e\u793a\u683c\u5f0f
p61
(lp62
g8
asVs\u5173\u95ed\u6587\u4ef6\u5939\u5e76\u521b\u5efa
p63
(lp64
g8
asV\u5bfc\u5165\u6587\u4ef6\u5217\u8868\u65f6\u5ffd\u7565
p65
(lp66
g8
asVandroid
p67
(lp68
g8
asV\u63cf\u8ff0
p69
(lp70
g8
asVprojpath
p71
(lp72
g8
asVname
p73
(lp74
g5
ag8
asV\u5927\u5199\u7684c
p75
(lp76
g8
asVnotes
p77
(lp78
g5
asV\u89e3\u538b\u7f29\u79fb\u52a8plugin\u548cdoc\u5230
p79
(lp80
g8
asV\u6253\u5f00\u6216\u5173\u95ed\u6587\u4ef6\u5939\u5217\u8868
p81
(lp82
g8
asVmode
p83
(lp84
g5
asV0\u67e5\u8be21
p85
(lp86
g8
asVs\u5c06\u6587\u4ef6\u5728\u6c34\u5e73\u6253\u5f00\u591a\u4e2a\u7a97\u53e3\u663e\u793a
p87
(lp88
g8
asV\u6253\u5f00vim\u540e
p89
(lp90
g8
asV\u53ef\u4ee5\u770b\u5230project\u7684\u5217\u8868
p91
(lp92
g8
asVjump
p93
(lp94
g5
asVpicked
p95
(lp96
g5
asVhome
p97
(lp98
g8
asV\u8f93\u5165
p99
(lp100
g8
asVout
p101
(lp102
g8
asV\u7a7a\u884c
p103
(lp104
g8
asVwill
p105
(lp106
g5
asVfor
p107
(lp108
g5
asVspace
p109
(lp110
g8
asV\u6ca1\u6709
p111
(lp112
g8
asVprojectname
p113
(lp114
g8
asVfilename
p115
(lp116
g5
ag8
asVcd
p117
(lp118
g8
asVre
p119
(lp120
g5
asVf9\u547d\u4ee4
p121
(lp122
g8
asVabove
p123
(lp124
g5
asV\u6309\u4efb\u4f55\u952e\u505c\u6b62
p125
(lp126
g8
asVi\u663e\u793a\u6587\u4ef6\u6216\u6587\u4ef6\u5939\u7684\u8bbe\u7f6e\u53c2\u6570
p127
(lp128
g8
asVbe
p129
(lp130
g5
asV\u4e00\u822c\u4e3a\u7a7a
p131
(lp132
g8
asV\u5982\u679c\u6ca1\u521d\u59cb\u5316
p133
(lp134
g8
asVvim\u5219\u81ea\u5df1\u521b\u5efa
p135
(lp136
g8
asV\u5217\u51fa\u6240\u6709\u5f53\u524d\u5c42\u6587\u4ef6
p137
(lp138
g8
asV\u4e3a\u5f53\u524d\u76ee\u5f55
p139
(lp140
g8
asV\u6062\u590d\u5bbd\u5ea6
p141
(lp142
g8
asV\u5e38\u7528\u547d\u4ee4
p143
(lp144
g8
asV\u6309\u7167\u63d0\u793a\u586b\u5199
p145
(lp146
g8
asV9\u547d\u4ee4
p147
(lp148
g8
asVplug
p149
(lp150
g5
asVon
p151
(lp152
g5
asVcommands
p153
(lp154
g5
asV\u9012\u5f52
p155
(lp156
g8
asVplugin
p157
(lp158
g8
asVof
p159
(lp160
g8
asVtaking
p161
(lp162
g5
asV\u9012\u5f52\u8bfb\u53d6\u5b50\u76ee\u5f55
p163
(lp164
g8
asVfilter
p165
(lp166
g8
asV\u6253\u5f00project
p167
(lp168
g8
asV\u9879\u76ee\u540d\u79f0
p169
(lp170
g8
asV\u5bfc\u5165\u9879\u76ee
p171
(lp172
g8
asV\u5982filter
p173
(lp174
g8
asV\u4f1a\u51fa\u73b0\u4e0b\u9762\u8fd9\u4e9b\u4fe1\u606f
p175
(lp176
g8
asVor
p177
(lp178
g5
asVcomes
p179
(lp180
g5
asVload
p181
(lp182
g8
asV\u7f51\u7ad9\u4e0a\u4e0b\u8f7d\u6700\u65b0\u7248\u672cproject
p183
(lp184
g8
asVvim
p185
(lp186
g5
ag8
asV\u5173\u95ed\u5f53\u524d\u5c42\u6587\u4ef6
p187
(lp188
g8
asVpath
p189
(lp190
g8
asVyour
p191
(lp192
g5
asV\u8bfb\u53d6\u5f53\u524d\u6587\u4ef6
p193
(lp194
g8
asVuse
p195
(lp196
g5
asV\u4e4b\u4e00
p197
(lp198
g8
asVr\u5173\u95ed\u5b50\u6587\u4ef6\u5939\u5e76\u5237\u65b0\u5f53\u524d\u6587\u4ef6\u5939\u4e0b\u6587\u4ef6
p199
(lp200
g8
asVmkdir
p201
(lp202
g8
asVtwo
p203
(lp204
g8
asV\u6253\u5f00vim\u7684project
p205
(lp206
g8
asVyanggang
p207
(lp208
g8
asVproject
p209
(lp210
g8
asVstarted
p211
(lp212
g5
asV\u6253\u5f00\u5217\u8868\u6587\u4ef6
p213
(lp214
g8
asV\u5728\u9879\u76ee\u5f53\u524d\u5c42\u6587\u4ef6\u641c\u7d22
p215
(lp216
g8
asVflag
p217
(lp218
g8
asV\u4f7f\u7528\u4ecb\u7ecd
p219
(lp220
g8
asVwith
p221
(lp222
g5
asVthese
p223
(lp224
g5
asVhosting
p225
(lp226
g5
asVcursor
p227
(lp228
g5
asVmv
p229
(lp230
g8
asVv\u5728\u53f3\u7a97\u53e3\u663e\u793a\u6307\u9488\u505c\u7559\u5728project\u7a97\u53e3\u7684\u6587\u4ef6\u5185\u5bb9
p231
(lp232
g8
asVand
p233
(lp234
g5
asVf1
p235
(lp236
g8
asVtar
p237
(lp238
g8
asVf9
p239
(lp240
g8
asVvim\u76ee\u5f55
p241
(lp242
g8
asVfile
p243
(lp244
g8
asVin
p245
(lp246
g5
ag8
asVready
p247
(lp248
g5
asVabsolute
p249
(lp250
g8
asV\u76f4\u63a5\u56de\u8f66
p251
(lp252
g8
asVpat
p253
(lp254
g8
asVself
p255
(lp256
g5
asVwhen
p257
(lp258
g5
asV\u793a\u4f8b
p259
(lp260
g8
asVhighlighted
p261
(lp262
g5
asVyou
p263
(lp264
g5
asVparameter
p265
(lp266
g8
asV\u7a7a\u683c\u6269\u5927project\u7a97\u53e3\u7684\u5bbd\u5ea6
p267
(lp268
g8
asVdescription
p269
(lp270
g8
asVnormal
p271
(lp272
g5
asV\u76f4\u63a5\u8f93\u5165
p273
(lp274
g8
asVupdate
p275
(lp276
g5
asV\u5217\u8868\u6587\u4ef6\u9ed8\u8ba4\u5b58\u50a8\u5730\u5740
p277
(lp278
g8
asV\u6587\u4ef6\u7c7b\u578b
p279
(lp280
g8
asV\u9879\u76ee\u8def\u5f84\u76ee\u5f55
p281
(lp282
g8
asVentry
p283
(lp284
g8
asVproject\u9879\u76ee\u7ba1\u7406\u5b9e\u4f8b
p285
(lp286
g8
asVi\u663e\u793a\u6587\u4ef6\u6216\u6587\u4ef6\u5939\u7684\u51b3\u5bf9\u8def\u5f84\u548c\u53c2\u6570
p287
(lp288
g8
asVproject_entry
p289
(lp290
g8
asV\u7b26\u5408\u6761\u4ef6\u7684\u6e90\u6587\u4ef6
p291
(lp292
g8
asVandroid_source
p293
(lp294
g8
asVf0\u67e5\u8be2f1
p295
(lp296
g8
asVo\u5c06\u6587\u4ef6\u5728\u4e00\u4e2a\u7a97\u53e3\u6253\u5f00
p297
(lp298
g8
asVdoc
p299
(lp300
g8
asVdocumentation
p301
(lp302
g5
asVoptions
p303
(lp304
g8
asVvimprojects
p305
(lp306
g8
asVwrite
p307
(lp308
g5
asVflags
p309
(lp310
g8
asVautomatically
p311
(lp312
g5
asVenter
p313
(lp314
g5
ag8
asVdirectory
p315
(lp316
g8
asVposition
p317
(lp318
g5
asVthe
p319
(lp320
g5
ag8
asV\u5219\u4e3a\u7a7a
p321
(lp322
g8
assS'files'
p323
(dp324
g5
F1344958563.0
sg8
F1344960355.0
ssS'version'
p325
I1
s.